target datalayout = "e-m:e-p270:32:32-p271:32:32-p272:64:64-i64:64-i128:128-f80:128-n8:16:32:64-S128"
target triple = "x86_64-pc-linux-gnu"

@.str.1 = private unnamed_addr constant [12 x i8] c"indexcmds.c\00", align 1
@.str.45 = private unnamed_addr constant [52 x i8] c"could not identify an equality operator for type %s\00", align 1
@.str.46 = private unnamed_addr constant [97 x i8] c"Could not translate compare type %d for operator family \22%s\22, input type %s, access method \22%s\22.\00", align 1
@__func__.GetOperatorFromCompareType = private unnamed_addr constant [27 x i8] c"GetOperatorFromCompareType\00", align 1
@.str.47 = private unnamed_addr constant [52 x i8] c"could not identify an overlaps operator for type %s\00", align 1
@.str.48 = private unnamed_addr constant [55 x i8] c"could not identify a contained-by operator for type %s\00", align 1
@.str.49 = private unnamed_addr constant [78 x i8] c"There is no suitable operator in operator family \22%s\22 for access method \22%s\22.\00", align 1

; Function Attrs: nounwind uwtable
define dso_local void @GetOperatorFromCompareType(i32 noundef %0, i32 noundef %1, i32 noundef %2, ptr noundef %3, ptr noundef %4) #0 {
  %6 = alloca i32, align 4
  %7 = alloca i32, align 4
  %8 = alloca i32, align 4
  %9 = alloca ptr, align 8
  %10 = alloca ptr, align 8
  %11 = alloca i32, align 4
  %12 = alloca i32, align 4
  %13 = alloca i32, align 4
  store i32 %0, ptr %6, align 4
  store i32 %1, ptr %7, align 4
  store i32 %2, ptr %8, align 4
  store ptr %3, ptr %9, align 8
  store ptr %4, ptr %10, align 8
  call void @llvm.lifetime.start.p0(i64 4, ptr %11) #10
  call void @llvm.lifetime.start.p0(i64 4, ptr %12) #10
  call void @llvm.lifetime.start.p0(i64 4, ptr %13) #10
  %14 = load i32, ptr %6, align 4
  %15 = call i32 @get_opclass_method(i32 noundef %14)
  store i32 %15, ptr %11, align 4
  %16 = load ptr, ptr %9, align 8
  store i32 0, ptr %16, align 4
  %17 = load i32, ptr %6, align 4
  %18 = call zeroext i1 @get_opclass_opfamily_and_input_type(i32 noundef %17, ptr noundef %12, ptr noundef %13)
  br i1 %18, label %19, label %65

19:                                               ; preds = %5
  %20 = load i32, ptr %8, align 4
  %21 = load i32, ptr %11, align 4
  %22 = load i32, ptr %12, align 4
  %23 = load i32, ptr %13, align 4
  %24 = call zeroext i16 @IndexAmTranslateCompareType(i32 noundef %20, i32 noundef %21, i32 noundef %22, i32 noundef %23, i1 noundef zeroext true)
  %25 = load ptr, ptr %10, align 8
  store i16 %24, ptr %25, align 2
  %26 = load ptr, ptr %10, align 8
  %27 = load i16, ptr %26, align 2
  %28 = zext i16 %27 to i32
  %29 = icmp eq i32 %28, 0
  br i1 %29, label %30, label %52

30:                                               ; preds = %19
  br label %31

31:                                               ; preds = %30
  br i1 true, label %32, label %34

32:                                               ; preds = %31
  %33 = call zeroext i1 @errstart_cold(i32 noundef 21, ptr noundef null) #11
  br i1 %33, label %36, label %49

34:                                               ; preds = %31
  %35 = call zeroext i1 @errstart(i32 noundef 21, ptr noundef null)
  br i1 %35, label %36, label %49

36:                                               ; preds = %34, %32
  %37 = call i32 @errcode(i32 noundef 67137668)
  %38 = load i32, ptr %13, align 4
  %39 = call ptr @format_type_be(i32 noundef %38)
  %40 = call i32 (ptr, ...) @errmsg(ptr noundef @.str.45, ptr noundef %39)
  store i32 %40, ptr %8, align 4
  %41 = load i32, ptr %8, align 4
  %42 = load i32, ptr %12, align 4
  %43 = call ptr @get_opfamily_name(i32 noundef %42, i1 noundef zeroext false)
  %44 = load i32, ptr %13, align 4
  %45 = call ptr @format_type_be(i32 noundef %44)
  %46 = load i32, ptr %11, align 4
  %47 = call ptr @get_am_name(i32 noundef %46)
  %48 = call i32 (ptr, ...) @errdetail(ptr noundef @.str.46, i32 noundef %41, ptr noundef %43, ptr noundef %45, ptr noundef %47)
  call void @errfinish(ptr noundef @.str.1, i32 noundef 2479, ptr noundef @__func__.GetOperatorFromCompareType)
  br label %49

49:                                               ; preds = %36, %34, %32
  unreachable

50:                                               ; No predecessors!
  br label %51

51:                                               ; preds = %50
  br label %52

52:                                               ; preds = %51, %19
  %53 = load i32, ptr %7, align 4
  %54 = icmp ne i32 %53, 0
  br i1 %54, label %57, label %55

55:                                               ; preds = %52
  %56 = load i32, ptr %13, align 4
  store i32 %56, ptr %7, align 4
  br label %57

57:                                               ; preds = %55, %52
  %58 = load i32, ptr %12, align 4
  %59 = load i32, ptr %13, align 4
  %60 = load i32, ptr %7, align 4
  %61 = load ptr, ptr %10, align 8
  %62 = load i16, ptr %61, align 2
  %63 = call i32 @get_opfamily_member(i32 noundef %58, i32 noundef %59, i32 noundef %60, i16 noundef signext %62)
  %64 = load ptr, ptr %9, align 8
  store i32 %63, ptr %64, align 4
  br label %65

65:                                               ; preds = %57, %5
  %66 = load ptr, ptr %9, align 8
  %67 = load i32, ptr %66, align 4
  %68 = icmp ne i32 %67, 0
  br i1 %68, label %109, label %69

69:                                               ; preds = %65
  br label %70

70:                                               ; preds = %69
  br i1 true, label %71, label %73

71:                                               ; preds = %70
  %72 = call zeroext i1 @errstart_cold(i32 noundef 21, ptr noundef null) #11
  br i1 %72, label %75, label %106

73:                                               ; preds = %70
  %74 = call zeroext i1 @errstart(i32 noundef 21, ptr noundef null)
  br i1 %74, label %75, label %106

75:                                               ; preds = %73, %71
  %76 = call i32 @errcode(i32 noundef 67137668)
  %77 = load i32, ptr %8, align 4
  %78 = icmp eq i32 %77, 3
  br i1 %78, label %79, label %83

79:                                               ; preds = %75
  %80 = load i32, ptr %13, align 4
  %81 = call ptr @format_type_be(i32 noundef %80)
  %82 = call i32 (ptr, ...) @errmsg(ptr noundef @.str.45, ptr noundef %81)
  br label %100

83:                                               ; preds = %75
  %84 = load i32, ptr %8, align 4
  %85 = icmp eq i32 %84, 7
  br i1 %85, label %86, label %90

86:                                               ; preds = %83
  %87 = load i32, ptr %13, align 4
  %88 = call ptr @format_type_be(i32 noundef %87)
  %89 = call i32 (ptr, ...) @errmsg(ptr noundef @.str.47, ptr noundef %88)
  br label %99

90:                                               ; preds = %83
  %91 = load i32, ptr %8, align 4
  %92 = icmp eq i32 %91, 8
  br i1 %92, label %93, label %97

93:                                               ; preds = %90
  %94 = load i32, ptr %13, align 4
  %95 = call ptr @format_type_be(i32 noundef %94)
  %96 = call i32 (ptr, ...) @errmsg(ptr noundef @.str.48, ptr noundef %95)
  br label %98

97:                                               ; preds = %90
  br label %98

98:                                               ; preds = %97, %93
  br label %99

99:                                               ; preds = %98, %86
  br label %100

100:                                              ; preds = %99, %79
  %101 = load i32, ptr %12, align 4
  %102 = call ptr @get_opfamily_name(i32 noundef %101, i1 noundef zeroext false)
  %103 = load i32, ptr %11, align 4
  %104 = call ptr @get_am_name(i32 noundef %103)
  %105 = call i32 (ptr, ...) @errdetail(ptr noundef @.str.49, ptr noundef %102, ptr noundef %104)
  call void @errfinish(ptr noundef @.str.1, i32 noundef 2498, ptr noundef @__func__.GetOperatorFromCompareType)
  br label %106

106:                                              ; preds = %100, %73, %71
  unreachable

107:                                              ; No predecessors!
  br label %108

108:                                              ; preds = %107
  br label %109

109:                                              ; preds = %108, %65
  call void @llvm.lifetime.end.p0(i64 4, ptr %13) #10
  call void @llvm.lifetime.end.p0(i64 4, ptr %12) #10
  call void @llvm.lifetime.end.p0(i64 4, ptr %11) #10
  ret void
}