; Function Attrs: nounwind uwtable
define dso_local void @GetOperatorFromCompareType(i32 noundef %0, i32 noundef %1, i32 noundef %2, ptr noundef captures(none) initializes((0, 4)) %3, ptr noundef writeonly captures(none) %4) local_unnamed_addr #0 {
  %6 = alloca i32, align 4
  %7 = alloca i32, align 4
  call void @llvm.lifetime.start.p0(i64 4, ptr nonnull %6) #11
  call void @llvm.lifetime.start.p0(i64 4, ptr nonnull %7) #11
  %8 = tail call i32 @get_opclass_method(i32 noundef %0) #11
  store i32 0, ptr %3, align 4
  %9 = call zeroext i1 @get_opclass_opfamily_and_input_type(i32 noundef %0, ptr noundef nonnull %6, ptr noundef nonnull %7) #11
  br i1 %9, label %10, label %thread-pre-split

10:                                               ; preds = %5
  %11 = load i32, ptr %6, align 4
  %12 = load i32, ptr %7, align 4
  %13 = call zeroext i16 @IndexAmTranslateCompareType(i32 noundef %2, i32 noundef %8, i32 noundef %11, i32 noundef %12, i1 noundef zeroext true) #11
  store i16 %13, ptr %4, align 2
  %14 = icmp eq i16 %13, 0
  br i1 %14, label %15, label %27

15:                                               ; preds = %10
  %16 = call zeroext i1 @errstart_cold(i32 noundef 21, ptr noundef null) #12
  call void @llvm.assume(i1 %16)
  %17 = call i32 @errcode(i32 noundef 67137668) #11
  %18 = load i32, ptr %7, align 4
  %19 = call ptr @format_type_be(i32 noundef %18) #11
  %20 = call i32 (ptr, ...) @errmsg(ptr noundef nonnull @.str.45, ptr noundef %19) #11
  %21 = load i32, ptr %6, align 4
  %22 = call ptr @get_opfamily_name(i32 noundef %21, i1 noundef zeroext false) #11
  %23 = load i32, ptr %7, align 4
  %24 = call ptr @format_type_be(i32 noundef %23) #11
  %25 = call ptr @get_am_name(i32 noundef %8) #11
  %26 = call i32 (ptr, ...) @errdetail(ptr noundef nonnull @.str.46, i32 noundef %20, ptr noundef %22, ptr noundef %24, ptr noundef %25) #11
  call void @errfinish(ptr noundef nonnull @.str.1, i32 noundef 2479, ptr noundef nonnull @__func__.GetOperatorFromCompareType) #11
  unreachable

27:                                               ; preds = %10
  %.not = icmp eq i32 %1, 0
  %28 = load i32, ptr %7, align 4
  %spec.select = select i1 %.not, i32 %28, i32 %1
  %29 = load i32, ptr %6, align 4
  %30 = call i32 @get_opfamily_member(i32 noundef %29, i32 noundef %28, i32 noundef %spec.select, i16 noundef signext %13) #11
  store i32 %30, ptr %3, align 4
  br label %31

thread-pre-split:                                 ; preds = %5
  %.pr = load i32, ptr %3, align 4
  br label %31

31:                                               ; preds = %thread-pre-split, %27
  %32 = phi i32 [ %.pr, %thread-pre-split ], [ %30, %27 ]
  %.not19 = icmp eq i32 %32, 0
  br i1 %.not19, label %33, label %46

33:                                               ; preds = %31
  %34 = call zeroext i1 @errstart_cold(i32 noundef 21, ptr noundef null) #12
  call void @llvm.assume(i1 %34)
  %35 = call i32 @errcode(i32 noundef 67137668) #11
  switch i32 %2, label %41 [
    i32 3, label %.sink.split
    i32 7, label %36
    i32 8, label %37
  ]

36:                                               ; preds = %33
  br label %.sink.split

37:                                               ; preds = %33
  br label %.sink.split

.sink.split:                                      ; preds = %33, %37, %36
  %.str.47.sink = phi ptr [ @.str.47, %36 ], [ @.str.48, %37 ], [ @.str.45, %33 ]
  %38 = load i32, ptr %7, align 4
  %39 = call ptr @format_type_be(i32 noundef %38) #11
  %40 = call i32 (ptr, ...) @errmsg(ptr noundef nonnull %.str.47.sink, ptr noundef %39) #11
  br label %41

41:                                               ; preds = %.sink.split, %33
  %42 = load i32, ptr %6, align 4
  %43 = call ptr @get_opfamily_name(i32 noundef %42, i1 noundef zeroext false) #11
  %44 = call ptr @get_am_name(i32 noundef %8) #11
  %45 = call i32 (ptr, ...) @errdetail(ptr noundef nonnull @.str.49, ptr noundef %43, ptr noundef %44) #11
  call void @errfinish(ptr noundef nonnull @.str.1, i32 noundef 2498, ptr noundef nonnull @__func__.GetOperatorFromCompareType) #11
  unreachable

46:                                               ; preds = %31
  call void @llvm.lifetime.end.p0(i64 4, ptr nonnull %7) #11
  call void @llvm.lifetime.end.p0(i64 4, ptr nonnull %6) #11
  ret void
}